#include <math.h>
#include <stdio.h>
#include <stdlib.h>
#include <string.h>

void main()
{
	char *s,*a,*b,*c,*e;
	s=(char *)malloc(101*sizeof(char));
	a=(char *)malloc(101*sizeof(char));
	b=(char *)malloc(101*sizeof(char));
	c=(char *)malloc(101*sizeof(char));
	gets(s);
	gets(a);
	gets(b);
	e=s+strlen(s);
	for(;;)
	{
		sscanf(s,"%s",c);
		if(strcmp(a,c)==0) printf("%s",b);
		else printf("%s",c);
		s=s+strlen(c)+1;
		if(s>=e) break;
		printf(" ");
	}
}
